; Function Attrs: mustprogress uwtable
define noundef i32 @uspoof_check2UTF8_75(ptr noundef %sc, ptr noundef %id, i32 noundef %length, ptr noundef %checkResult, ptr noundef %status) local_unnamed_addr #0 personality ptr @__gxx_personality_v0 {
entry:
  %idStr = alloca %"class.icu_75::UnicodeString", align 8
  %0 = load i32, ptr %status, align 4
  %cmp.i = icmp slt i32 %0, 1
  br i1 %cmp.i, label %if.end, label %return

if.end:                                           ; preds = %entry
  %cmp = icmp sgt i32 %length, -1
  br i1 %cmp, label %cond.end, label %cond.false

cond.false:                                       ; preds = %if.end
  %call1 = tail call i64 @strlen(ptr noundef nonnull dereferenceable(1) %id) #7
  %conv = trunc i64 %call1 to i32
  br label %cond.end

cond.end:                                         ; preds = %if.end, %cond.false
  %cond = phi i32 [ %conv, %cond.false ], [ %length, %if.end ]
  call void @_ZN6icu_7513UnicodeString8fromUTF8ENS_11StringPieceE(ptr nonnull sret(%"class.icu_75::UnicodeString") align 8 %idStr, ptr %id, i32 %cond)
  %call2 = invoke i32 @uspoof_check2UnicodeString_75(ptr noundef %sc, ptr noundef nonnull align 8 dereferenceable(64) %idStr, ptr noundef %checkResult, ptr noundef nonnull %status)
          to label %invoke.cont unwind label %lpad

invoke.cont:                                      ; preds = %cond.end
  call void @_ZN6icu_7513UnicodeStringD1Ev(ptr noundef nonnull align 8 dereferenceable(64) %idStr) #6
  br label %return

lpad:                                             ; preds = %cond.end
  %1 = landingpad { ptr, i32 }
          cleanup
  call void @_ZN6icu_7513UnicodeStringD1Ev(ptr noundef nonnull align 8 dereferenceable(64) %idStr) #6
  resume { ptr, i32 } %1

return:                                           ; preds = %entry, %invoke.cont
  %retval.0 = phi i32 [ %call2, %invoke.cont ], [ 0, %entry ]
  ret i32 %retval.0
}